target datalayout = "e-m:e-p270:32:32-p271:32:32-p272:64:64-i64:64-i128:128-f80:128-n8:16:32:64-S128"
target triple = "x86_64-pc-linux-gnu"

@openlog_done = internal global i8 0, align 1
@syslog_facility = internal global i32 128, align 4

; Function Attrs: nounwind uwtable
define dso_local void @assign_syslog_facility(i32 noundef %0, ptr noundef %1) #0 {
  %3 = alloca i32, align 4
  %4 = alloca ptr, align 8
  store i32 %0, ptr %3, align 4
  store ptr %1, ptr %4, align 8
  %5 = load i32, ptr @syslog_facility, align 4
  %6 = load i32, ptr %3, align 4
  %7 = icmp ne i32 %5, %6
  br i1 %7, label %8, label %14

8:                                                ; preds = %2
  %9 = load i8, ptr @openlog_done, align 1, !range !4, !noundef !5
  %10 = trunc i8 %9 to i1
  br i1 %10, label %11, label %12

11:                                               ; preds = %8
  call void @closelog()
  store i8 0, ptr @openlog_done, align 1
  br label %12

12:                                               ; preds = %11, %8
  %13 = load i32, ptr %3, align 4
  store i32 %13, ptr @syslog_facility, align 4
  br label %14

14:                                               ; preds = %12, %2
  ret void
}