; Function Attrs: nounwind uwtable
define dso_local void @assign_syslog_facility(i32 noundef %0, ptr noundef readnone captures(none) %1) local_unnamed_addr #3 {
  %3 = load i32, ptr @syslog_facility, align 4
  %.not = icmp eq i32 %3, %0
  br i1 %.not, label %7, label %4

4:                                                ; preds = %2
  %.b2 = load i1, ptr @openlog_done, align 1
  br i1 %.b2, label %5, label %6

5:                                                ; preds = %4
  tail call void @closelog() #32
  store i1 false, ptr @openlog_done, align 1
  br label %6

6:                                                ; preds = %5, %4
  store i32 %0, ptr @syslog_facility, align 4
  br label %7

7:                                                ; preds = %6, %2
  ret void
}